; Function Attrs: mustprogress nounwind uwtable
define void @_ZN7testing10TestResult20ClearTestPartResultsEv(ptr nocapture noundef nonnull align 8 dereferenceable(120) %this) local_unnamed_addr #7 align 2 personality ptr @__gxx_personality_v0 {
entry:
  %test_part_results_ = getelementptr inbounds i8, ptr %this, i64 56
  %0 = load ptr, ptr %test_part_results_, align 8
  %_M_finish.i.i = getelementptr inbounds i8, ptr %this, i64 64
  %1 = load ptr, ptr %_M_finish.i.i, align 8
  %tobool.not.i.i = icmp eq ptr %1, %0
  br i1 %tobool.not.i.i, label %_ZNSt6vectorIN7testing14TestPartResultESaIS1_EE5clearEv.exit, label %for.body.i.i.i.i.i

for.body.i.i.i.i.i:                               ; preds = %entry, %for.body.i.i.i.i.i
  %__first.addr.04.i.i.i.i.i = phi ptr [ %incdec.ptr.i.i.i.i.i, %for.body.i.i.i.i.i ], [ %0, %entry ]
  %message_.i.i.i.i.i.i.i = getelementptr inbounds i8, ptr %__first.addr.04.i.i.i.i.i, i64 80
  tail call void @_ZNSt7__cxx1112basic_stringIcSt11char_traitsIcESaIcEED1Ev(ptr noundef nonnull align 8 dereferenceable(32) %message_.i.i.i.i.i.i.i) #47
  %summary_.i.i.i.i.i.i.i = getelementptr inbounds i8, ptr %__first.addr.04.i.i.i.i.i, i64 48
  tail call void @_ZNSt7__cxx1112basic_stringIcSt11char_traitsIcESaIcEED1Ev(ptr noundef nonnull align 8 dereferenceable(32) %summary_.i.i.i.i.i.i.i) #47
  %file_name_.i.i.i.i.i.i.i = getelementptr inbounds i8, ptr %__first.addr.04.i.i.i.i.i, i64 8
  tail call void @_ZNSt7__cxx1112basic_stringIcSt11char_traitsIcESaIcEED1Ev(ptr noundef nonnull align 8 dereferenceable(32) %file_name_.i.i.i.i.i.i.i) #47
  %incdec.ptr.i.i.i.i.i = getelementptr inbounds i8, ptr %__first.addr.04.i.i.i.i.i, i64 112
  %cmp.not.i.i.i.i.i = icmp eq ptr %incdec.ptr.i.i.i.i.i, %1
  br i1 %cmp.not.i.i.i.i.i, label %invoke.cont.i.i, label %for.body.i.i.i.i.i, !llvm.loop !210

invoke.cont.i.i:                                  ; preds = %for.body.i.i.i.i.i
  store ptr %0, ptr %_M_finish.i.i, align 8
  br label %_ZNSt6vectorIN7testing14TestPartResultESaIS1_EE5clearEv.exit

_ZNSt6vectorIN7testing14TestPartResultESaIS1_EE5clearEv.exit: ; preds = %entry, %invoke.cont.i.i
  ret void
}